target datalayout = "e-m:e-p270:32:32-p271:32:32-p272:64:64-i64:64-i128:128-f80:128-n8:16:32:64-S128"
target triple = "x86_64-pc-linux-gnu"

%struct.grpc_slice = type { ptr, %"union.grpc_slice::grpc_slice_data" }
%"union.grpc_slice::grpc_slice_data" = type { %"struct.grpc_slice::grpc_slice_data::grpc_slice_refcounted", [8 x i8] }
%"struct.grpc_slice::grpc_slice_data::grpc_slice_refcounted" = type { i64, ptr }
%"struct.grpc_slice::grpc_slice_data::grpc_slice_inlined" = type { i8, [23 x i8] }

; Function Attrs: mustprogress nounwind uwtable
define i32 @grpc_slice_chr(ptr noundef byval(%struct.grpc_slice) align 8 %0, i8 noundef signext %1) #7 {
  %3 = alloca i8, align 1
  %4 = alloca ptr, align 8
  %5 = alloca ptr, align 8
  store i8 %1, ptr %3, align 1, !tbaa !9
  call void @llvm.lifetime.start.p0(i64 8, ptr %4) #3
  %6 = getelementptr inbounds nuw %struct.grpc_slice, ptr %0, i32 0, i32 0
  %7 = load ptr, ptr %6, align 8, !tbaa !3
  %8 = icmp ne ptr %7, null
  br i1 %8, label %9, label %13

9:                                                ; preds = %2
  %10 = getelementptr inbounds nuw %struct.grpc_slice, ptr %0, i32 0, i32 1
  %11 = getelementptr inbounds nuw %"struct.grpc_slice::grpc_slice_data::grpc_slice_refcounted", ptr %10, i32 0, i32 1
  %12 = load ptr, ptr %11, align 8, !tbaa !9
  br label %17

13:                                               ; preds = %2
  %14 = getelementptr inbounds nuw %struct.grpc_slice, ptr %0, i32 0, i32 1
  %15 = getelementptr inbounds nuw %"struct.grpc_slice::grpc_slice_data::grpc_slice_inlined", ptr %14, i32 0, i32 1
  %16 = getelementptr inbounds [23 x i8], ptr %15, i64 0, i64 0
  br label %17

17:                                               ; preds = %13, %9
  %18 = phi ptr [ %12, %9 ], [ %16, %13 ]
  store ptr %18, ptr %4, align 8, !tbaa !10
  call void @llvm.lifetime.start.p0(i64 8, ptr %5) #3
  %19 = load ptr, ptr %4, align 8, !tbaa !10
  %20 = load i8, ptr %3, align 1, !tbaa !9
  %21 = sext i8 %20 to i32
  %22 = getelementptr inbounds nuw %struct.grpc_slice, ptr %0, i32 0, i32 0
  %23 = load ptr, ptr %22, align 8, !tbaa !3
  %24 = icmp ne ptr %23, null
  br i1 %24, label %25, label %29

25:                                               ; preds = %17
  %26 = getelementptr inbounds nuw %struct.grpc_slice, ptr %0, i32 0, i32 1
  %27 = getelementptr inbounds nuw %"struct.grpc_slice::grpc_slice_data::grpc_slice_refcounted", ptr %26, i32 0, i32 0
  %28 = load i64, ptr %27, align 8, !tbaa !9
  br label %34

29:                                               ; preds = %17
  %30 = getelementptr inbounds nuw %struct.grpc_slice, ptr %0, i32 0, i32 1
  %31 = getelementptr inbounds nuw %"struct.grpc_slice::grpc_slice_data::grpc_slice_inlined", ptr %30, i32 0, i32 0
  %32 = load i8, ptr %31, align 8, !tbaa !9
  %33 = zext i8 %32 to i64
  br label %34

34:                                               ; preds = %29, %25
  %35 = phi i64 [ %28, %25 ], [ %33, %29 ]
  %36 = call noundef ptr @memchr(ptr noundef %19, i32 noundef %21, i64 noundef %35) #19
  store ptr %36, ptr %5, align 8, !tbaa !10
  %37 = load ptr, ptr %5, align 8, !tbaa !10
  %38 = icmp eq ptr %37, null
  br i1 %38, label %39, label %40

39:                                               ; preds = %34
  br label %47

40:                                               ; preds = %34
  %41 = load ptr, ptr %5, align 8, !tbaa !10
  %42 = load ptr, ptr %4, align 8, !tbaa !10
  %43 = ptrtoint ptr %41 to i64
  %44 = ptrtoint ptr %42 to i64
  %45 = sub i64 %43, %44
  %46 = trunc i64 %45 to i32
  br label %47

47:                                               ; preds = %40, %39
  %48 = phi i32 [ -1, %39 ], [ %46, %40 ]
  call void @llvm.lifetime.end.p0(i64 8, ptr %5) #3
  call void @llvm.lifetime.end.p0(i64 8, ptr %4) #3
  ret i32 %48
}

; Function Attrs: mustprogress nounwind uwtable
define i32 @grpc_slice_eq(ptr noundef byval(%struct.grpc_slice) align 8 %0, ptr noundef byval(%struct.grpc_slice) align 8 %1) #7 {
  %3 = alloca i32, align 4
  %4 = getelementptr inbounds nuw %struct.grpc_slice, ptr %0, i32 0, i32 0
  %5 = load ptr, ptr %4, align 8, !tbaa !3
  %6 = icmp ne ptr %5, null
  br i1 %6, label %7, label %11

7:                                                ; preds = %2
  %8 = getelementptr inbounds nuw %struct.grpc_slice, ptr %0, i32 0, i32 1
  %9 = getelementptr inbounds nuw %"struct.grpc_slice::grpc_slice_data::grpc_slice_refcounted", ptr %8, i32 0, i32 0
  %10 = load i64, ptr %9, align 8, !tbaa !9
  br label %16

11:                                               ; preds = %2
  %12 = getelementptr inbounds nuw %struct.grpc_slice, ptr %0, i32 0, i32 1
  %13 = getelementptr inbounds nuw %"struct.grpc_slice::grpc_slice_data::grpc_slice_inlined", ptr %12, i32 0, i32 0
  %14 = load i8, ptr %13, align 8, !tbaa !9
  %15 = zext i8 %14 to i64
  br label %16

16:                                               ; preds = %11, %7
  %17 = phi i64 [ %10, %7 ], [ %15, %11 ]
  %18 = getelementptr inbounds nuw %struct.grpc_slice, ptr %1, i32 0, i32 0
  %19 = load ptr, ptr %18, align 8, !tbaa !3
  %20 = icmp ne ptr %19, null
  br i1 %20, label %21, label %25

21:                                               ; preds = %16
  %22 = getelementptr inbounds nuw %struct.grpc_slice, ptr %1, i32 0, i32 1
  %23 = getelementptr inbounds nuw %"struct.grpc_slice::grpc_slice_data::grpc_slice_refcounted", ptr %22, i32 0, i32 0
  %24 = load i64, ptr %23, align 8, !tbaa !9
  br label %30

25:                                               ; preds = %16
  %26 = getelementptr inbounds nuw %struct.grpc_slice, ptr %1, i32 0, i32 1
  %27 = getelementptr inbounds nuw %"struct.grpc_slice::grpc_slice_data::grpc_slice_inlined", ptr %26, i32 0, i32 0
  %28 = load i8, ptr %27, align 8, !tbaa !9
  %29 = zext i8 %28 to i64
  br label %30

30:                                               ; preds = %25, %21
  %31 = phi i64 [ %24, %21 ], [ %29, %25 ]
  %32 = icmp ne i64 %17, %31
  br i1 %32, label %33, label %34

33:                                               ; preds = %30
  store i32 0, ptr %3, align 4
  br label %95

34:                                               ; preds = %30
  %35 = getelementptr inbounds nuw %struct.grpc_slice, ptr %0, i32 0, i32 0
  %36 = load ptr, ptr %35, align 8, !tbaa !3
  %37 = icmp ne ptr %36, null
  br i1 %37, label %38, label %42

38:                                               ; preds = %34
  %39 = getelementptr inbounds nuw %struct.grpc_slice, ptr %0, i32 0, i32 1
  %40 = getelementptr inbounds nuw %"struct.grpc_slice::grpc_slice_data::grpc_slice_refcounted", ptr %39, i32 0, i32 0
  %41 = load i64, ptr %40, align 8, !tbaa !9
  br label %47

42:                                               ; preds = %34
  %43 = getelementptr inbounds nuw %struct.grpc_slice, ptr %0, i32 0, i32 1
  %44 = getelementptr inbounds nuw %"struct.grpc_slice::grpc_slice_data::grpc_slice_inlined", ptr %43, i32 0, i32 0
  %45 = load i8, ptr %44, align 8, !tbaa !9
  %46 = zext i8 %45 to i64
  br label %47

47:                                               ; preds = %42, %38
  %48 = phi i64 [ %41, %38 ], [ %46, %42 ]
  %49 = icmp eq i64 %48, 0
  br i1 %49, label %50, label %51

50:                                               ; preds = %47
  store i32 1, ptr %3, align 4
  br label %95

51:                                               ; preds = %47
  %52 = getelementptr inbounds nuw %struct.grpc_slice, ptr %0, i32 0, i32 0
  %53 = load ptr, ptr %52, align 8, !tbaa !3
  %54 = icmp ne ptr %53, null
  br i1 %54, label %55, label %59

55:                                               ; preds = %51
  %56 = getelementptr inbounds nuw %struct.grpc_slice, ptr %0, i32 0, i32 1
  %57 = getelementptr inbounds nuw %"struct.grpc_slice::grpc_slice_data::grpc_slice_refcounted", ptr %56, i32 0, i32 1
  %58 = load ptr, ptr %57, align 8, !tbaa !9
  br label %63

59:                                               ; preds = %51
  %60 = getelementptr inbounds nuw %struct.grpc_slice, ptr %0, i32 0, i32 1
  %61 = getelementptr inbounds nuw %"struct.grpc_slice::grpc_slice_data::grpc_slice_inlined", ptr %60, i32 0, i32 1
  %62 = getelementptr inbounds [23 x i8], ptr %61, i64 0, i64 0
  br label %63

63:                                               ; preds = %59, %55
  %64 = phi ptr [ %58, %55 ], [ %62, %59 ]
  %65 = getelementptr inbounds nuw %struct.grpc_slice, ptr %1, i32 0, i32 0
  %66 = load ptr, ptr %65, align 8, !tbaa !3
  %67 = icmp ne ptr %66, null
  br i1 %67, label %68, label %72

68:                                               ; preds = %63
  %69 = getelementptr inbounds nuw %struct.grpc_slice, ptr %1, i32 0, i32 1
  %70 = getelementptr inbounds nuw %"struct.grpc_slice::grpc_slice_data::grpc_slice_refcounted", ptr %69, i32 0, i32 1
  %71 = load ptr, ptr %70, align 8, !tbaa !9
  br label %76

72:                                               ; preds = %63
  %73 = getelementptr inbounds nuw %struct.grpc_slice, ptr %1, i32 0, i32 1
  %74 = getelementptr inbounds nuw %"struct.grpc_slice::grpc_slice_data::grpc_slice_inlined", ptr %73, i32 0, i32 1
  %75 = getelementptr inbounds [23 x i8], ptr %74, i64 0, i64 0
  br label %76

76:                                               ; preds = %72, %68
  %77 = phi ptr [ %71, %68 ], [ %75, %72 ]
  %78 = getelementptr inbounds nuw %struct.grpc_slice, ptr %0, i32 0, i32 0
  %79 = load ptr, ptr %78, align 8, !tbaa !3
  %80 = icmp ne ptr %79, null
  br i1 %80, label %81, label %85

81:                                               ; preds = %76
  %82 = getelementptr inbounds nuw %struct.grpc_slice, ptr %0, i32 0, i32 1
  %83 = getelementptr inbounds nuw %"struct.grpc_slice::grpc_slice_data::grpc_slice_refcounted", ptr %82, i32 0, i32 0
  %84 = load i64, ptr %83, align 8, !tbaa !9
  br label %90

85:                                               ; preds = %76
  %86 = getelementptr inbounds nuw %struct.grpc_slice, ptr %0, i32 0, i32 1
  %87 = getelementptr inbounds nuw %"struct.grpc_slice::grpc_slice_data::grpc_slice_inlined", ptr %86, i32 0, i32 0
  %88 = load i8, ptr %87, align 8, !tbaa !9
  %89 = zext i8 %88 to i64
  br label %90

90:                                               ; preds = %85, %81
  %91 = phi i64 [ %84, %81 ], [ %89, %85 ]
  %92 = call i32 @memcmp(ptr noundef %64, ptr noundef %77, i64 noundef %91) #19
  %93 = icmp eq i32 0, %92
  %94 = zext i1 %93 to i32
  store i32 %94, ptr %3, align 4
  br label %95

95:                                               ; preds = %90, %50, %33
  %96 = load i32, ptr %3, align 4
  ret i32 %96
}

; Function Attrs: mustprogress nounwind uwtable
define i32 @grpc_slice_slice(ptr noundef byval(%struct.grpc_slice) align 8 %0, ptr noundef byval(%struct.grpc_slice) align 8 %1) #7 {
  %3 = alloca i32, align 4
  %4 = alloca i64, align 8
  %5 = alloca ptr, align 8
  %6 = alloca i64, align 8
  %7 = alloca ptr, align 8
  %8 = alloca i32, align 4
  %9 = alloca %struct.grpc_slice, align 8
  %10 = alloca %struct.grpc_slice, align 8
  %11 = alloca %struct.grpc_slice, align 8
  %12 = alloca ptr, align 8
  %13 = alloca ptr, align 8
  call void @llvm.lifetime.start.p0(i64 8, ptr %4) #3
  %14 = getelementptr inbounds nuw %struct.grpc_slice, ptr %0, i32 0, i32 0
  %15 = load ptr, ptr %14, align 8, !tbaa !3
  %16 = icmp ne ptr %15, null
  br i1 %16, label %17, label %21

17:                                               ; preds = %2
  %18 = getelementptr inbounds nuw %struct.grpc_slice, ptr %0, i32 0, i32 1
  %19 = getelementptr inbounds nuw %"struct.grpc_slice::grpc_slice_data::grpc_slice_refcounted", ptr %18, i32 0, i32 0
  %20 = load i64, ptr %19, align 8, !tbaa !9
  br label %26

21:                                               ; preds = %2
  %22 = getelementptr inbounds nuw %struct.grpc_slice, ptr %0, i32 0, i32 1
  %23 = getelementptr inbounds nuw %"struct.grpc_slice::grpc_slice_data::grpc_slice_inlined", ptr %22, i32 0, i32 0
  %24 = load i8, ptr %23, align 8, !tbaa !9
  %25 = zext i8 %24 to i64
  br label %26

26:                                               ; preds = %21, %17
  %27 = phi i64 [ %20, %17 ], [ %25, %21 ]
  store i64 %27, ptr %4, align 8, !tbaa !12
  call void @llvm.lifetime.start.p0(i64 8, ptr %5) #3
  %28 = getelementptr inbounds nuw %struct.grpc_slice, ptr %0, i32 0, i32 0
  %29 = load ptr, ptr %28, align 8, !tbaa !3
  %30 = icmp ne ptr %29, null
  br i1 %30, label %31, label %35

31:                                               ; preds = %26
  %32 = getelementptr inbounds nuw %struct.grpc_slice, ptr %0, i32 0, i32 1
  %33 = getelementptr inbounds nuw %"struct.grpc_slice::grpc_slice_data::grpc_slice_refcounted", ptr %32, i32 0, i32 1
  %34 = load ptr, ptr %33, align 8, !tbaa !9
  br label %39

35:                                               ; preds = %26
  %36 = getelementptr inbounds nuw %struct.grpc_slice, ptr %0, i32 0, i32 1
  %37 = getelementptr inbounds nuw %"struct.grpc_slice::grpc_slice_data::grpc_slice_inlined", ptr %36, i32 0, i32 1
  %38 = getelementptr inbounds [23 x i8], ptr %37, i64 0, i64 0
  br label %39

39:                                               ; preds = %35, %31
  %40 = phi ptr [ %34, %31 ], [ %38, %35 ]
  store ptr %40, ptr %5, align 8, !tbaa !10
  call void @llvm.lifetime.start.p0(i64 8, ptr %6) #3
  %41 = getelementptr inbounds nuw %struct.grpc_slice, ptr %1, i32 0, i32 0
  %42 = load ptr, ptr %41, align 8, !tbaa !3
  %43 = icmp ne ptr %42, null
  br i1 %43, label %44, label %48

44:                                               ; preds = %39
  %45 = getelementptr inbounds nuw %struct.grpc_slice, ptr %1, i32 0, i32 1
  %46 = getelementptr inbounds nuw %"struct.grpc_slice::grpc_slice_data::grpc_slice_refcounted", ptr %45, i32 0, i32 0
  %47 = load i64, ptr %46, align 8, !tbaa !9
  br label %53

48:                                               ; preds = %39
  %49 = getelementptr inbounds nuw %struct.grpc_slice, ptr %1, i32 0, i32 1
  %50 = getelementptr inbounds nuw %"struct.grpc_slice::grpc_slice_data::grpc_slice_inlined", ptr %49, i32 0, i32 0
  %51 = load i8, ptr %50, align 8, !tbaa !9
  %52 = zext i8 %51 to i64
  br label %53

53:                                               ; preds = %48, %44
  %54 = phi i64 [ %47, %44 ], [ %52, %48 ]
  store i64 %54, ptr %6, align 8, !tbaa !12
  call void @llvm.lifetime.start.p0(i64 8, ptr %7) #3
  %55 = getelementptr inbounds nuw %struct.grpc_slice, ptr %1, i32 0, i32 0
  %56 = load ptr, ptr %55, align 8, !tbaa !3
  %57 = icmp ne ptr %56, null
  br i1 %57, label %58, label %62

58:                                               ; preds = %53
  %59 = getelementptr inbounds nuw %struct.grpc_slice, ptr %1, i32 0, i32 1
  %60 = getelementptr inbounds nuw %"struct.grpc_slice::grpc_slice_data::grpc_slice_refcounted", ptr %59, i32 0, i32 1
  %61 = load ptr, ptr %60, align 8, !tbaa !9
  br label %66

62:                                               ; preds = %53
  %63 = getelementptr inbounds nuw %struct.grpc_slice, ptr %1, i32 0, i32 1
  %64 = getelementptr inbounds nuw %"struct.grpc_slice::grpc_slice_data::grpc_slice_inlined", ptr %63, i32 0, i32 1
  %65 = getelementptr inbounds [23 x i8], ptr %64, i64 0, i64 0
  br label %66

66:                                               ; preds = %62, %58
  %67 = phi ptr [ %61, %58 ], [ %65, %62 ]
  store ptr %67, ptr %7, align 8, !tbaa !10
  %68 = load i64, ptr %4, align 8, !tbaa !12
  %69 = icmp eq i64 %68, 0
  br i1 %69, label %73, label %70

70:                                               ; preds = %66
  %71 = load i64, ptr %6, align 8, !tbaa !12
  %72 = icmp eq i64 %71, 0
  br i1 %72, label %73, label %74

73:                                               ; preds = %70, %66
  store i32 -1, ptr %3, align 4
  store i32 1, ptr %8, align 4
  br label %128

74:                                               ; preds = %70
  %75 = load i64, ptr %4, align 8, !tbaa !12
  %76 = load i64, ptr %6, align 8, !tbaa !12
  %77 = icmp ult i64 %75, %76
  br i1 %77, label %78, label %79

78:                                               ; preds = %74
  store i32 -1, ptr %3, align 4
  store i32 1, ptr %8, align 4
  br label %128

79:                                               ; preds = %74
  %80 = load i64, ptr %4, align 8, !tbaa !12
  %81 = load i64, ptr %6, align 8, !tbaa !12
  %82 = icmp eq i64 %80, %81
  br i1 %82, label %83, label %87

83:                                               ; preds = %79
  call void @llvm.memcpy.p0.p0.i64(ptr align 8 %9, ptr align 8 %0, i64 32, i1 false), !tbaa.struct !17
  call void @llvm.memcpy.p0.p0.i64(ptr align 8 %10, ptr align 8 %1, i64 32, i1 false), !tbaa.struct !17
  %84 = call i32 @grpc_slice_eq(ptr noundef byval(%struct.grpc_slice) align 8 %9, ptr noundef byval(%struct.grpc_slice) align 8 %10)
  %85 = icmp ne i32 %84, 0
  %86 = select i1 %85, i32 0, i32 -1
  store i32 %86, ptr %3, align 4
  store i32 1, ptr %8, align 4
  br label %128

87:                                               ; preds = %79
  %88 = load i64, ptr %6, align 8, !tbaa !12
  %89 = icmp eq i64 %88, 1
  br i1 %89, label %90, label %94

90:                                               ; preds = %87
  call void @llvm.memcpy.p0.p0.i64(ptr align 8 %11, ptr align 8 %0, i64 32, i1 false), !tbaa.struct !17
  %91 = load ptr, ptr %7, align 8, !tbaa !10
  %92 = load i8, ptr %91, align 1, !tbaa !9
  %93 = call i32 @grpc_slice_chr(ptr noundef byval(%struct.grpc_slice) align 8 %11, i8 noundef signext %92)
  store i32 %93, ptr %3, align 4
  store i32 1, ptr %8, align 4
  br label %128

94:                                               ; preds = %87
  call void @llvm.lifetime.start.p0(i64 8, ptr %12) #3
  %95 = load ptr, ptr %5, align 8, !tbaa !10
  %96 = load i64, ptr %4, align 8, !tbaa !12
  %97 = getelementptr inbounds nuw i8, ptr %95, i64 %96
  %98 = load i64, ptr %6, align 8, !tbaa !12
  %99 = sub i64 0, %98
  %100 = getelementptr inbounds i8, ptr %97, i64 %99
  store ptr %100, ptr %12, align 8, !tbaa !10
  call void @llvm.lifetime.start.p0(i64 8, ptr %13) #3
  %101 = load ptr, ptr %5, align 8, !tbaa !10
  store ptr %101, ptr %13, align 8, !tbaa !10
  br label %102

102:                                              ; preds = %121, %94
  %103 = load ptr, ptr %13, align 8, !tbaa !10
  %104 = load ptr, ptr %12, align 8, !tbaa !10
  %105 = icmp ule ptr %103, %104
  br i1 %105, label %107, label %106

106:                                              ; preds = %102
  store i32 2, ptr %8, align 4
  br label %124

107:                                              ; preds = %102
  %108 = load ptr, ptr %13, align 8, !tbaa !10
  %109 = load ptr, ptr %7, align 8, !tbaa !10
  %110 = load i64, ptr %6, align 8, !tbaa !12
  %111 = call i32 @memcmp(ptr noundef %108, ptr noundef %109, i64 noundef %110) #19
  %112 = icmp eq i32 0, %111
  br i1 %112, label %113, label %120

113:                                              ; preds = %107
  %114 = load ptr, ptr %13, align 8, !tbaa !10
  %115 = load ptr, ptr %5, align 8, !tbaa !10
  %116 = ptrtoint ptr %114 to i64
  %117 = ptrtoint ptr %115 to i64
  %118 = sub i64 %116, %117
  %119 = trunc i64 %118 to i32
  store i32 %119, ptr %3, align 4
  store i32 1, ptr %8, align 4
  br label %124

120:                                              ; preds = %107
  br label %121

121:                                              ; preds = %120
  %122 = load ptr, ptr %13, align 8, !tbaa !10
  %123 = getelementptr inbounds nuw i8, ptr %122, i32 1
  store ptr %123, ptr %13, align 8, !tbaa !10
  br label %102, !llvm.loop !58

124:                                              ; preds = %113, %106
  call void @llvm.lifetime.end.p0(i64 8, ptr %13) #3
  %125 = load i32, ptr %8, align 4
  switch i32 %125, label %127 [
    i32 2, label %126
  ]

126:                                              ; preds = %124
  store i32 -1, ptr %3, align 4
  store i32 1, ptr %8, align 4
  br label %127

127:                                              ; preds = %126, %124
  call void @llvm.lifetime.end.p0(i64 8, ptr %12) #3
  br label %128

128:                                              ; preds = %127, %90, %83, %78, %73
  call void @llvm.lifetime.end.p0(i64 8, ptr %7) #3
  call void @llvm.lifetime.end.p0(i64 8, ptr %6) #3
  call void @llvm.lifetime.end.p0(i64 8, ptr %5) #3
  call void @llvm.lifetime.end.p0(i64 8, ptr %4) #3
  %129 = load i32, ptr %3, align 4
  ret i32 %129
}