; Function Attrs: mustprogress nofree nounwind memory(read, argmem: readwrite, inaccessiblemem: none) uwtable
define i32 @grpc_slice_slice(ptr noundef byval(%struct.grpc_slice) align 8 %0, ptr noundef readonly byval(%struct.grpc_slice) align 8 captures(none) %1) local_unnamed_addr #16 {
  %3 = alloca %struct.grpc_slice, align 8
  %4 = alloca %struct.grpc_slice, align 8
  %5 = alloca %struct.grpc_slice, align 8
  %6 = load ptr, ptr %0, align 8, !tbaa !3
  %.not = icmp eq ptr %6, null
  %7 = getelementptr inbounds nuw i8, ptr %0, i64 8
  %8 = load i64, ptr %7, align 8
  %9 = and i64 %8, 255
  %10 = select i1 %.not, i64 %9, i64 %8
  %11 = getelementptr inbounds nuw i8, ptr %0, i64 16
  %12 = load ptr, ptr %11, align 8
  %13 = getelementptr inbounds nuw i8, ptr %0, i64 9
  %14 = select i1 %.not, ptr %13, ptr %12
  %15 = load ptr, ptr %1, align 8, !tbaa !3
  %.not26 = icmp eq ptr %15, null
  %16 = getelementptr inbounds nuw i8, ptr %1, i64 8
  %17 = load i64, ptr %16, align 8
  %18 = and i64 %17, 255
  %19 = select i1 %.not26, i64 %18, i64 %17
  %20 = getelementptr inbounds nuw i8, ptr %1, i64 16
  %21 = load ptr, ptr %20, align 8
  %22 = getelementptr inbounds nuw i8, ptr %1, i64 9
  %23 = select i1 %.not26, ptr %22, ptr %21
  %24 = icmp eq i64 %10, 0
  %25 = add i64 %19, -1
  %26 = icmp uge i64 %25, %10
  %or.cond29 = select i1 %24, i1 true, i1 %26
  br i1 %or.cond29, label %grpc_slice_eq.exit, label %27

27:                                               ; preds = %2
  %28 = icmp eq i64 %10, %19
  br i1 %28, label %29, label %53

29:                                               ; preds = %27
  call void @llvm.memcpy.p0.p0.i64(ptr noundef nonnull align 8 dereferenceable(32) %3, ptr noundef nonnull align 8 dereferenceable(32) %0, i64 32, i1 false), !tbaa.struct !84
  call void @llvm.memcpy.p0.p0.i64(ptr noundef nonnull align 8 dereferenceable(32) %4, ptr noundef nonnull align 8 dereferenceable(32) %1, i64 32, i1 false), !tbaa.struct !84
  %30 = load ptr, ptr %3, align 8, !tbaa !3
  %.not.i = icmp eq ptr %30, null
  %31 = getelementptr inbounds nuw i8, ptr %3, i64 8
  %32 = load i64, ptr %31, align 8
  %33 = and i64 %32, 255
  %34 = select i1 %.not.i, i64 %33, i64 %32
  %35 = load ptr, ptr %4, align 8, !tbaa !3
  %.not1.i = icmp eq ptr %35, null
  %36 = getelementptr inbounds nuw i8, ptr %4, i64 8
  %37 = load i64, ptr %36, align 8
  %38 = and i64 %37, 255
  %39 = select i1 %.not1.i, i64 %38, i64 %37
  %.not2.i = icmp eq i64 %34, %39
  br i1 %.not2.i, label %40, label %grpc_slice_eq.exit

40:                                               ; preds = %29
  %41 = icmp eq i64 %34, 0
  br i1 %41, label %grpc_slice_eq.exit, label %42

42:                                               ; preds = %40
  %43 = getelementptr inbounds nuw i8, ptr %3, i64 16
  %44 = load ptr, ptr %43, align 8
  %45 = getelementptr inbounds nuw i8, ptr %3, i64 9
  %46 = select i1 %.not.i, ptr %45, ptr %44
  %47 = getelementptr inbounds nuw i8, ptr %4, i64 16
  %48 = load ptr, ptr %47, align 8
  %49 = getelementptr inbounds nuw i8, ptr %4, i64 9
  %50 = select i1 %.not1.i, ptr %49, ptr %48
  %bcmp.i = call i32 @bcmp(ptr %46, ptr %50, i64 %34)
  %51 = icmp ne i32 %bcmp.i, 0
  %52 = sext i1 %51 to i32
  br label %grpc_slice_eq.exit

53:                                               ; preds = %27
  %54 = icmp eq i64 %19, 1
  br i1 %54, label %55, label %74

55:                                               ; preds = %53
  call void @llvm.memcpy.p0.p0.i64(ptr noundef nonnull align 8 dereferenceable(32) %5, ptr noundef nonnull align 8 dereferenceable(32) %0, i64 32, i1 false), !tbaa.struct !84
  %56 = load i8, ptr %23, align 1, !tbaa !9
  %57 = load ptr, ptr %5, align 8, !tbaa !3
  %.not.i30 = icmp eq ptr %57, null
  %58 = getelementptr inbounds nuw i8, ptr %5, i64 8
  %59 = getelementptr inbounds nuw i8, ptr %5, i64 16
  %60 = load ptr, ptr %59, align 8
  %61 = getelementptr inbounds nuw i8, ptr %5, i64 9
  %62 = select i1 %.not.i30, ptr %61, ptr %60
  %63 = sext i8 %56 to i32
  %64 = load i64, ptr %58, align 8
  %65 = and i64 %64, 255
  %66 = select i1 %.not.i30, i64 %65, i64 %64
  %67 = call noundef ptr @memchr(ptr noundef %62, i32 noundef %63, i64 noundef %66) #29
  %68 = icmp eq ptr %67, null
  %69 = ptrtoint ptr %67 to i64
  %70 = ptrtoint ptr %62 to i64
  %71 = sub i64 %69, %70
  %72 = trunc i64 %71 to i32
  %73 = select i1 %68, i32 -1, i32 %72
  br label %grpc_slice_eq.exit

74:                                               ; preds = %53
  %75 = getelementptr inbounds nuw i8, ptr %14, i64 %10
  %76 = sub i64 0, %19
  %77 = getelementptr inbounds i8, ptr %75, i64 %76
  %.not2732 = icmp ugt ptr %14, %77
  br i1 %.not2732, label %grpc_slice_eq.exit, label %.lr.ph

.lr.ph:                                           ; preds = %74, %84
  %.033 = phi ptr [ %85, %84 ], [ %14, %74 ]
  %bcmp = call i32 @bcmp(ptr %.033, ptr %23, i64 %19)
  %78 = icmp eq i32 %bcmp, 0
  br i1 %78, label %79, label %84

79:                                               ; preds = %.lr.ph
  %80 = ptrtoint ptr %.033 to i64
  %81 = ptrtoint ptr %14 to i64
  %82 = sub i64 %80, %81
  %83 = trunc i64 %82 to i32
  br label %grpc_slice_eq.exit

84:                                               ; preds = %.lr.ph
  %85 = getelementptr inbounds nuw i8, ptr %.033, i64 1
  %.not27 = icmp ugt ptr %85, %77
  br i1 %.not27, label %grpc_slice_eq.exit, label %.lr.ph, !llvm.loop !87

grpc_slice_eq.exit:                               ; preds = %84, %74, %79, %42, %40, %29, %2, %55
  %.022 = phi i32 [ %73, %55 ], [ -1, %2 ], [ %52, %42 ], [ -1, %29 ], [ 0, %40 ], [ %83, %79 ], [ -1, %74 ], [ -1, %84 ]
  ret i32 %.022
}